target datalayout = "e-m:e-p270:32:32-p271:32:32-p272:64:64-i64:64-i128:128-f80:128-n8:16:32:64-S128"
target triple = "x86_64-unknown-linux-gnu"

%"class.std::set.0" = type { %"class.std::_Rb_tree.1" }
%"class.std::_Rb_tree.1" = type { %"struct.std::_Rb_tree<QuantLib::Observer *, QuantLib::Observer *, std::_Identity<QuantLib::Observer *>, std::less<QuantLib::Observer *>>::_Rb_tree_impl" }
%"struct.std::_Rb_tree<QuantLib::Observer *, QuantLib::Observer *, std::_Identity<QuantLib::Observer *>, std::less<QuantLib::Observer *>>::_Rb_tree_impl" = type { [8 x i8], %"struct.std::_Rb_tree_header" }
%"struct.std::_Rb_tree_header" = type { %"struct.std::_Rb_tree_node_base", i64 }
%"struct.std::_Rb_tree_node_base" = type { i32, ptr, ptr, ptr }
%"class.std::set" = type { %"class.std::_Rb_tree" }
%"class.std::_Rb_tree" = type { %"struct.std::_Rb_tree<boost::shared_ptr<QuantLib::Observable>, boost::shared_ptr<QuantLib::Observable>, std::_Identity<boost::shared_ptr<QuantLib::Observable>>, std::less<boost::shared_ptr<QuantLib::Observable>>>::_Rb_tree_impl" }
%"struct.std::_Rb_tree<boost::shared_ptr<QuantLib::Observable>, boost::shared_ptr<QuantLib::Observable>, std::_Identity<boost::shared_ptr<QuantLib::Observable>>, std::less<boost::shared_ptr<QuantLib::Observable>>>::_Rb_tree_impl" = type { [8 x i8], %"struct.std::_Rb_tree_header" }
%"class.boost::detail::shared_count" = type { ptr }
%"class.QuantLib::Observable" = type { ptr, %"class.std::set.0" }
%"class.QuantLib::Observer" = type { ptr, %"class.std::set" }
%"class.std::vector.35" = type { %"struct.std::_Vector_base.36" }
%"struct.std::_Vector_base.36" = type { %"struct.std::_Vector_base<double, std::allocator<double>>::_Vector_impl" }
%"struct.std::_Vector_base<double, std::allocator<double>>::_Vector_impl" = type { %"struct.std::_Vector_base<double, std::allocator<double>>::_Vector_impl_data" }
%"struct.std::_Vector_base<double, std::allocator<double>>::_Vector_impl_data" = type { ptr, ptr, ptr }
%"class.QuantLib::RangeAccrualPricer" = type { %"class.QuantLib::FloatingRateCouponPricer.base", ptr, double, double, double, %"class.std::vector.35", %"class.std::vector.35", %"class.std::vector.35", i64, double, double, double, double, double, double, %"class.QuantLib::Observer", %"class.QuantLib::Observable" }
%"class.QuantLib::FloatingRateCouponPricer.base" = type { ptr }
%"class.QuantLib::RangeAccrualPricerByBgm" = type { %"class.QuantLib::RangeAccrualPricer.base", double, i8, i8, %"class.boost::shared_ptr.48", %"class.boost::shared_ptr.48", double, %"class.QuantLib::Observer", %"class.QuantLib::Observable" }
%"class.QuantLib::RangeAccrualPricer.base" = type { %"class.QuantLib::FloatingRateCouponPricer.base", ptr, double, double, double, %"class.std::vector.35", %"class.std::vector.35", %"class.std::vector.35", i64, double, double, double, double, double, double }
%"class.boost::shared_ptr.48" = type { ptr, %"class.boost::detail::shared_count" }

; Function Attrs: mustprogress nounwind uwtable
define linkonce_odr void @_ZNSt15__new_allocatorIdEC2Ev(ptr noundef nonnull align 1 dereferenceable(1) %this) unnamed_addr #1 comdat align 2 {
entry:
  %this.addr = alloca ptr, align 8
  store ptr %this, ptr %this.addr, align 8, !tbaa !3
  ret void
}

; Function Attrs: mustprogress nounwind uwtable
define linkonce_odr void @_ZNSt12_Vector_baseIdSaIdEE17_Vector_impl_dataC2Ev(ptr noundef nonnull align 8 dereferenceable(24) %this) unnamed_addr #1 comdat align 2 {
entry:
  %this.addr = alloca ptr, align 8
  store ptr %this, ptr %this.addr, align 8, !tbaa !3
  %this1 = load ptr, ptr %this.addr, align 8
  %_M_start = getelementptr inbounds nuw %"struct.std::_Vector_base<double, std::allocator<double>>::_Vector_impl_data", ptr %this1, i32 0, i32 0
  store ptr null, ptr %_M_start, align 8, !tbaa !69
  %_M_finish = getelementptr inbounds nuw %"struct.std::_Vector_base<double, std::allocator<double>>::_Vector_impl_data", ptr %this1, i32 0, i32 1
  store ptr null, ptr %_M_finish, align 8, !tbaa !70
  %_M_end_of_storage = getelementptr inbounds nuw %"struct.std::_Vector_base<double, std::allocator<double>>::_Vector_impl_data", ptr %this1, i32 0, i32 2
  store ptr null, ptr %_M_end_of_storage, align 8, !tbaa !89
  ret void
}

; Function Attrs: mustprogress nounwind uwtable
define linkonce_odr void @_ZNSaIdEC2Ev(ptr noundef nonnull align 1 dereferenceable(1) %this) unnamed_addr #1 comdat align 2 {
entry:
  %this.addr = alloca ptr, align 8
  store ptr %this, ptr %this.addr, align 8, !tbaa !3
  %this1 = load ptr, ptr %this.addr, align 8
  call void @_ZNSt15__new_allocatorIdEC2Ev(ptr noundef nonnull align 1 dereferenceable(1) %this1) #18
  ret void
}

; Function Attrs: mustprogress nounwind uwtable
define linkonce_odr void @_ZNSt12_Vector_baseIdSaIdEE12_Vector_implC2Ev(ptr noundef nonnull align 8 dereferenceable(24) %this) unnamed_addr #1 comdat align 2 {
entry:
  %this.addr = alloca ptr, align 8
  store ptr %this, ptr %this.addr, align 8, !tbaa !3
  %this1 = load ptr, ptr %this.addr, align 8
  call void @_ZNSaIdEC2Ev(ptr noundef nonnull align 1 dereferenceable(1) %this1) #18
  call void @_ZNSt12_Vector_baseIdSaIdEE17_Vector_impl_dataC2Ev(ptr noundef nonnull align 8 dereferenceable(24) %this1) #18
  ret void
}

; Function Attrs: mustprogress nounwind uwtable
define linkonce_odr void @_ZNSt12_Vector_baseIdSaIdEEC2Ev(ptr noundef nonnull align 8 dereferenceable(24) %this) unnamed_addr #1 comdat align 2 {
entry:
  %this.addr = alloca ptr, align 8
  store ptr %this, ptr %this.addr, align 8, !tbaa !3
  %this1 = load ptr, ptr %this.addr, align 8
  %_M_impl = getelementptr inbounds nuw %"struct.std::_Vector_base.36", ptr %this1, i32 0, i32 0
  call void @_ZNSt12_Vector_baseIdSaIdEE12_Vector_implC2Ev(ptr noundef nonnull align 8 dereferenceable(24) %_M_impl) #18
  ret void
}

; Function Attrs: mustprogress nounwind uwtable
define linkonce_odr void @_ZN5boost6detail12shared_countC2EOS1_(ptr noundef nonnull align 8 dereferenceable(8) %this, ptr noundef nonnull align 8 dereferenceable(8) %r) unnamed_addr #1 comdat align 2 {
entry:
  %this.addr = alloca ptr, align 8
  %r.addr = alloca ptr, align 8
  store ptr %this, ptr %this.addr, align 8, !tbaa !3
  store ptr %r, ptr %r.addr, align 8, !tbaa !3
  %this1 = load ptr, ptr %this.addr, align 8
  %pi_ = getelementptr inbounds nuw %"class.boost::detail::shared_count", ptr %this1, i32 0, i32 0
  %0 = load ptr, ptr %r.addr, align 8, !tbaa !3
  %pi_2 = getelementptr inbounds nuw %"class.boost::detail::shared_count", ptr %0, i32 0, i32 0
  %1 = load ptr, ptr %pi_2, align 8, !tbaa !187
  store ptr %1, ptr %pi_, align 8, !tbaa !187
  %2 = load ptr, ptr %r.addr, align 8, !tbaa !3
  %pi_3 = getelementptr inbounds nuw %"class.boost::detail::shared_count", ptr %2, i32 0, i32 0
  store ptr null, ptr %pi_3, align 8, !tbaa !187
  ret void
}

; Function Attrs: mustprogress nounwind uwtable
define linkonce_odr void @_ZNSt6vectorIdSaIdEEC2Ev(ptr noundef nonnull align 8 dereferenceable(24) %this) unnamed_addr #1 comdat align 2 {
entry:
  %this.addr = alloca ptr, align 8
  store ptr %this, ptr %this.addr, align 8, !tbaa !3
  %this1 = load ptr, ptr %this.addr, align 8
  call void @_ZNSt12_Vector_baseIdSaIdEEC2Ev(ptr noundef nonnull align 8 dereferenceable(24) %this1) #18
  ret void
}

; Function Attrs: inlinehint mustprogress nounwind uwtable
define linkonce_odr void @_ZN8QuantLib24FloatingRateCouponPricerC2Ev(ptr noundef nonnull align 8 dereferenceable(8) %this, ptr noundef %vtt) unnamed_addr #5 comdat align 2 {
entry:
  %this.addr = alloca ptr, align 8
  %vtt.addr = alloca ptr, align 8
  store ptr %this, ptr %this.addr, align 8, !tbaa !3
  store ptr %vtt, ptr %vtt.addr, align 8, !tbaa !3
  %this1 = load ptr, ptr %this.addr, align 8
  %vtt2 = load ptr, ptr %vtt.addr, align 8
  %0 = load ptr, ptr %vtt2, align 8
  store ptr %0, ptr %this1, align 8, !tbaa !20
  %1 = getelementptr inbounds ptr, ptr %vtt2, i64 1
  %2 = load ptr, ptr %1, align 8
  %vtable = load ptr, ptr %this1, align 8, !tbaa !20
  %vbase.offset.ptr = getelementptr i8, ptr %vtable, i64 -24
  %vbase.offset = load i64, ptr %vbase.offset.ptr, align 8
  %add.ptr = getelementptr inbounds i8, ptr %this1, i64 %vbase.offset
  store ptr %2, ptr %add.ptr, align 8, !tbaa !20
  %3 = getelementptr inbounds ptr, ptr %vtt2, i64 2
  %4 = load ptr, ptr %3, align 8
  %vtable3 = load ptr, ptr %this1, align 8, !tbaa !20
  %vbase.offset.ptr4 = getelementptr i8, ptr %vtable3, i64 -32
  %vbase.offset5 = load i64, ptr %vbase.offset.ptr4, align 8
  %add.ptr6 = getelementptr inbounds i8, ptr %this1, i64 %vbase.offset5
  store ptr %4, ptr %add.ptr6, align 8, !tbaa !20
  ret void
}

; Function Attrs: mustprogress nounwind uwtable
define linkonce_odr void @_ZN5boost10shared_ptrIN8QuantLib12SmileSectionEEC2EOS3_(ptr noundef nonnull align 8 dereferenceable(16) %this, ptr noundef nonnull align 8 dereferenceable(16) %r) unnamed_addr #1 comdat align 2 {
entry:
  %this.addr = alloca ptr, align 8
  %r.addr = alloca ptr, align 8
  store ptr %this, ptr %this.addr, align 8, !tbaa !3
  store ptr %r, ptr %r.addr, align 8, !tbaa !3
  %this1 = load ptr, ptr %this.addr, align 8
  %px = getelementptr inbounds nuw %"class.boost::shared_ptr.48", ptr %this1, i32 0, i32 0
  %0 = load ptr, ptr %r.addr, align 8, !tbaa !3
  %px2 = getelementptr inbounds nuw %"class.boost::shared_ptr.48", ptr %0, i32 0, i32 0
  %1 = load ptr, ptr %px2, align 8, !tbaa !97
  store ptr %1, ptr %px, align 8, !tbaa !97
  %pn = getelementptr inbounds nuw %"class.boost::shared_ptr.48", ptr %this1, i32 0, i32 1
  %2 = load ptr, ptr %r.addr, align 8, !tbaa !3
  %pn3 = getelementptr inbounds nuw %"class.boost::shared_ptr.48", ptr %2, i32 0, i32 1
  call void @_ZN5boost6detail12shared_countC2EOS1_(ptr noundef nonnull align 8 dereferenceable(8) %pn, ptr noundef nonnull align 8 dereferenceable(8) %pn3) #18
  %3 = load ptr, ptr %r.addr, align 8, !tbaa !3
  %px4 = getelementptr inbounds nuw %"class.boost::shared_ptr.48", ptr %3, i32 0, i32 0
  store ptr null, ptr %px4, align 8, !tbaa !97
  ret void
}

; Function Attrs: inlinehint mustprogress nounwind uwtable
define linkonce_odr void @_ZN8QuantLib18RangeAccrualPricerC2Ev(ptr noundef nonnull align 8 dereferenceable(168) %this, ptr noundef %vtt) unnamed_addr #5 comdat align 2 {
entry:
  %this.addr = alloca ptr, align 8
  %vtt.addr = alloca ptr, align 8
  store ptr %this, ptr %this.addr, align 8, !tbaa !3
  store ptr %vtt, ptr %vtt.addr, align 8, !tbaa !3
  %this1 = load ptr, ptr %this.addr, align 8
  %vtt2 = load ptr, ptr %vtt.addr, align 8
  %0 = getelementptr inbounds ptr, ptr %vtt2, i64 1
  call void @_ZN8QuantLib24FloatingRateCouponPricerC2Ev(ptr noundef nonnull align 8 dereferenceable(8) %this1, ptr noundef %0) #18
  %1 = load ptr, ptr %vtt2, align 8
  store ptr %1, ptr %this1, align 8, !tbaa !20
  %2 = getelementptr inbounds ptr, ptr %vtt2, i64 4
  %3 = load ptr, ptr %2, align 8
  %vtable = load ptr, ptr %this1, align 8, !tbaa !20
  %vbase.offset.ptr = getelementptr i8, ptr %vtable, i64 -24
  %vbase.offset = load i64, ptr %vbase.offset.ptr, align 8
  %add.ptr = getelementptr inbounds i8, ptr %this1, i64 %vbase.offset
  store ptr %3, ptr %add.ptr, align 8, !tbaa !20
  %4 = getelementptr inbounds ptr, ptr %vtt2, i64 5
  %5 = load ptr, ptr %4, align 8
  %vtable3 = load ptr, ptr %this1, align 8, !tbaa !20
  %vbase.offset.ptr4 = getelementptr i8, ptr %vtable3, i64 -32
  %vbase.offset5 = load i64, ptr %vbase.offset.ptr4, align 8
  %add.ptr6 = getelementptr inbounds i8, ptr %this1, i64 %vbase.offset5
  store ptr %5, ptr %add.ptr6, align 8, !tbaa !20
  %observationTimeLags_ = getelementptr inbounds nuw %"class.QuantLib::RangeAccrualPricer", ptr %this1, i32 0, i32 5
  call void @_ZNSt6vectorIdSaIdEEC2Ev(ptr noundef nonnull align 8 dereferenceable(24) %observationTimeLags_) #18
  %observationTimes_ = getelementptr inbounds nuw %"class.QuantLib::RangeAccrualPricer", ptr %this1, i32 0, i32 6
  call void @_ZNSt6vectorIdSaIdEEC2Ev(ptr noundef nonnull align 8 dereferenceable(24) %observationTimes_) #18
  %initialValues_ = getelementptr inbounds nuw %"class.QuantLib::RangeAccrualPricer", ptr %this1, i32 0, i32 7
  call void @_ZNSt6vectorIdSaIdEEC2Ev(ptr noundef nonnull align 8 dereferenceable(24) %initialValues_) #18
  ret void
}

; Function Attrs: mustprogress nounwind uwtable
define void @_ZN8QuantLib23RangeAccrualPricerByBgmC2EdN5boost10shared_ptrINS_12SmileSectionEEES4_bb(ptr noundef nonnull align 8 dereferenceable(224) %this, ptr noundef %vtt, double noundef %correlation, ptr noundef %smilesOnExpiry, ptr noundef %smilesOnPayment, i1 noundef zeroext %withSmile, i1 noundef zeroext %byCallSpread) unnamed_addr #1 align 2 {
entry:
  %this.addr = alloca ptr, align 8
  %vtt.addr = alloca ptr, align 8
  %correlation.addr = alloca double, align 8
  %smilesOnExpiry.indirect_addr = alloca ptr, align 8
  %smilesOnPayment.indirect_addr = alloca ptr, align 8
  %withSmile.addr = alloca i8, align 1
  %byCallSpread.addr = alloca i8, align 1
  store ptr %this, ptr %this.addr, align 8, !tbaa !3
  store ptr %vtt, ptr %vtt.addr, align 8, !tbaa !3
  store double %correlation, ptr %correlation.addr, align 8, !tbaa !31
  store ptr %smilesOnExpiry, ptr %smilesOnExpiry.indirect_addr, align 8, !tbaa !3
  store ptr %smilesOnPayment, ptr %smilesOnPayment.indirect_addr, align 8, !tbaa !3
  %storedv = zext i1 %withSmile to i8
  store i8 %storedv, ptr %withSmile.addr, align 1, !tbaa !74
  %storedv1 = zext i1 %byCallSpread to i8
  store i8 %storedv1, ptr %byCallSpread.addr, align 1, !tbaa !74
  %this2 = load ptr, ptr %this.addr, align 8
  %vtt3 = load ptr, ptr %vtt.addr, align 8
  %0 = getelementptr inbounds ptr, ptr %vtt3, i64 1
  call void @_ZN8QuantLib18RangeAccrualPricerC2Ev(ptr noundef nonnull align 8 dereferenceable(168) %this2, ptr noundef %0) #18
  %1 = load ptr, ptr %vtt3, align 8
  store ptr %1, ptr %this2, align 8, !tbaa !20
  %2 = getelementptr inbounds ptr, ptr %vtt3, i64 7
  %3 = load ptr, ptr %2, align 8
  %vtable = load ptr, ptr %this2, align 8, !tbaa !20
  %vbase.offset.ptr = getelementptr i8, ptr %vtable, i64 -24
  %vbase.offset = load i64, ptr %vbase.offset.ptr, align 8
  %add.ptr = getelementptr inbounds i8, ptr %this2, i64 %vbase.offset
  store ptr %3, ptr %add.ptr, align 8, !tbaa !20
  %4 = getelementptr inbounds ptr, ptr %vtt3, i64 8
  %5 = load ptr, ptr %4, align 8
  %vtable4 = load ptr, ptr %this2, align 8, !tbaa !20
  %vbase.offset.ptr5 = getelementptr i8, ptr %vtable4, i64 -32
  %vbase.offset6 = load i64, ptr %vbase.offset.ptr5, align 8
  %add.ptr7 = getelementptr inbounds i8, ptr %this2, i64 %vbase.offset6
  store ptr %5, ptr %add.ptr7, align 8, !tbaa !20
  %correlation_ = getelementptr inbounds nuw %"class.QuantLib::RangeAccrualPricerByBgm", ptr %this2, i32 0, i32 1
  %6 = load double, ptr %correlation.addr, align 8, !tbaa !31
  store double %6, ptr %correlation_, align 8, !tbaa !91
  %withSmile_ = getelementptr inbounds nuw %"class.QuantLib::RangeAccrualPricerByBgm", ptr %this2, i32 0, i32 2
  %7 = load i8, ptr %withSmile.addr, align 1, !tbaa !74, !range !15, !noundef !16
  %loadedv = trunc i8 %7 to i1
  %storedv8 = zext i1 %loadedv to i8
  store i8 %storedv8, ptr %withSmile_, align 8, !tbaa !94
  %byCallSpread_ = getelementptr inbounds nuw %"class.QuantLib::RangeAccrualPricerByBgm", ptr %this2, i32 0, i32 3
  %8 = load i8, ptr %byCallSpread.addr, align 1, !tbaa !74, !range !15, !noundef !16
  %loadedv9 = trunc i8 %8 to i1
  %storedv10 = zext i1 %loadedv9 to i8
  store i8 %storedv10, ptr %byCallSpread_, align 1, !tbaa !95
  %smilesOnExpiry_ = getelementptr inbounds nuw %"class.QuantLib::RangeAccrualPricerByBgm", ptr %this2, i32 0, i32 4
  call void @_ZN5boost10shared_ptrIN8QuantLib12SmileSectionEEC2EOS3_(ptr noundef nonnull align 8 dereferenceable(16) %smilesOnExpiry_, ptr noundef nonnull align 8 dereferenceable(16) %smilesOnExpiry) #18
  %smilesOnPayment_ = getelementptr inbounds nuw %"class.QuantLib::RangeAccrualPricerByBgm", ptr %this2, i32 0, i32 5
  call void @_ZN5boost10shared_ptrIN8QuantLib12SmileSectionEEC2EOS3_(ptr noundef nonnull align 8 dereferenceable(16) %smilesOnPayment_, ptr noundef nonnull align 8 dereferenceable(16) %smilesOnPayment) #18
  %eps_ = getelementptr inbounds nuw %"class.QuantLib::RangeAccrualPricerByBgm", ptr %this2, i32 0, i32 6
  store double 1.000000e-08, ptr %eps_, align 8, !tbaa !96
  ret void
}