; Function Attrs: mustprogress nofree norecurse nosync nounwind willreturn memory(read, argmem: readwrite, inaccessiblemem: none) uwtable
define void @_ZN8QuantLib23RangeAccrualPricerByBgmC2EdN5boost10shared_ptrINS_12SmileSectionEEES4_bb(ptr nocapture noundef nonnull align 8 dereferenceable(224) %this, ptr nocapture noundef readonly %vtt, double noundef %correlation, ptr nocapture noundef %smilesOnExpiry, ptr nocapture noundef %smilesOnPayment, i1 noundef zeroext %withSmile, i1 noundef zeroext %byCallSpread) unnamed_addr #15 align 2 {
entry:
  %storedv = zext i1 %withSmile to i8
  %storedv1 = zext i1 %byCallSpread to i8
  %0 = getelementptr inbounds i8, ptr %vtt, i64 8
  %1 = getelementptr inbounds i8, ptr %vtt, i64 16
  %2 = load ptr, ptr %1, align 8
  store ptr %2, ptr %this, align 8, !tbaa !33
  %3 = getelementptr inbounds i8, ptr %vtt, i64 24
  %4 = load ptr, ptr %3, align 8
  %vbase.offset.ptr.i.i = getelementptr i8, ptr %2, i64 -24
  %vbase.offset.i.i = load i64, ptr %vbase.offset.ptr.i.i, align 8
  %add.ptr.i.i = getelementptr inbounds i8, ptr %this, i64 %vbase.offset.i.i
  store ptr %4, ptr %add.ptr.i.i, align 8, !tbaa !33
  %5 = getelementptr inbounds i8, ptr %vtt, i64 32
  %6 = load ptr, ptr %5, align 8
  %vtable3.i.i = load ptr, ptr %this, align 8, !tbaa !33
  %vbase.offset.ptr4.i.i = getelementptr i8, ptr %vtable3.i.i, i64 -32
  %vbase.offset5.i.i = load i64, ptr %vbase.offset.ptr4.i.i, align 8
  %add.ptr6.i.i = getelementptr inbounds i8, ptr %this, i64 %vbase.offset5.i.i
  store ptr %6, ptr %add.ptr6.i.i, align 8, !tbaa !33
  %7 = load ptr, ptr %0, align 8
  store ptr %7, ptr %this, align 8, !tbaa !33
  %8 = getelementptr inbounds i8, ptr %vtt, i64 40
  %9 = load ptr, ptr %8, align 8
  %vbase.offset.ptr.i = getelementptr i8, ptr %7, i64 -24
  %vbase.offset.i = load i64, ptr %vbase.offset.ptr.i, align 8
  %add.ptr.i = getelementptr inbounds i8, ptr %this, i64 %vbase.offset.i
  store ptr %9, ptr %add.ptr.i, align 8, !tbaa !33
  %10 = getelementptr inbounds i8, ptr %vtt, i64 48
  %11 = load ptr, ptr %10, align 8
  %vtable3.i = load ptr, ptr %this, align 8, !tbaa !33
  %vbase.offset.ptr4.i = getelementptr i8, ptr %vtable3.i, i64 -32
  %vbase.offset5.i = load i64, ptr %vbase.offset.ptr4.i, align 8
  %add.ptr6.i = getelementptr inbounds i8, ptr %this, i64 %vbase.offset5.i
  store ptr %11, ptr %add.ptr6.i, align 8, !tbaa !33
  %observationTimeLags_.i = getelementptr inbounds nuw i8, ptr %this, i64 40
  tail call void @llvm.memset.p0.i64(ptr noundef nonnull align 8 dereferenceable(72) %observationTimeLags_.i, i8 0, i64 72, i1 false)
  %12 = load ptr, ptr %vtt, align 8
  store ptr %12, ptr %this, align 8, !tbaa !33
  %13 = getelementptr inbounds i8, ptr %vtt, i64 56
  %14 = load ptr, ptr %13, align 8
  %vbase.offset.ptr = getelementptr i8, ptr %12, i64 -24
  %vbase.offset = load i64, ptr %vbase.offset.ptr, align 8
  %add.ptr = getelementptr inbounds i8, ptr %this, i64 %vbase.offset
  store ptr %14, ptr %add.ptr, align 8, !tbaa !33
  %15 = getelementptr inbounds i8, ptr %vtt, i64 64
  %16 = load ptr, ptr %15, align 8
  %vtable4 = load ptr, ptr %this, align 8, !tbaa !33
  %vbase.offset.ptr5 = getelementptr i8, ptr %vtable4, i64 -32
  %vbase.offset6 = load i64, ptr %vbase.offset.ptr5, align 8
  %add.ptr7 = getelementptr inbounds i8, ptr %this, i64 %vbase.offset6
  store ptr %16, ptr %add.ptr7, align 8, !tbaa !33
  %correlation_ = getelementptr inbounds nuw i8, ptr %this, i64 168
  store double %correlation, ptr %correlation_, align 8, !tbaa !157
  %withSmile_ = getelementptr inbounds nuw i8, ptr %this, i64 176
  store i8 %storedv, ptr %withSmile_, align 8, !tbaa !160
  %byCallSpread_ = getelementptr inbounds nuw i8, ptr %this, i64 177
  store i8 %storedv1, ptr %byCallSpread_, align 1, !tbaa !161
  %smilesOnExpiry_ = getelementptr inbounds nuw i8, ptr %this, i64 184
  %17 = load ptr, ptr %smilesOnExpiry, align 8, !tbaa !162
  store ptr %17, ptr %smilesOnExpiry_, align 8, !tbaa !162
  %pn.i = getelementptr inbounds nuw i8, ptr %this, i64 192
  %pn3.i = getelementptr inbounds nuw i8, ptr %smilesOnExpiry, i64 8
  %18 = load ptr, ptr %pn3.i, align 8, !tbaa !48
  store ptr %18, ptr %pn.i, align 8, !tbaa !48
  tail call void @llvm.memset.p0.i64(ptr noundef nonnull align 8 dereferenceable(16) %smilesOnExpiry, i8 0, i64 16, i1 false)
  %smilesOnPayment_ = getelementptr inbounds nuw i8, ptr %this, i64 200
  %19 = load ptr, ptr %smilesOnPayment, align 8, !tbaa !162
  store ptr %19, ptr %smilesOnPayment_, align 8, !tbaa !162
  %pn.i1 = getelementptr inbounds nuw i8, ptr %this, i64 208
  %pn3.i2 = getelementptr inbounds nuw i8, ptr %smilesOnPayment, i64 8
  %20 = load ptr, ptr %pn3.i2, align 8, !tbaa !48
  store ptr %20, ptr %pn.i1, align 8, !tbaa !48
  tail call void @llvm.memset.p0.i64(ptr noundef nonnull align 8 dereferenceable(16) %smilesOnPayment, i8 0, i64 16, i1 false)
  %eps_ = getelementptr inbounds nuw i8, ptr %this, i64 216
  store double 1.000000e-08, ptr %eps_, align 8, !tbaa !163
  ret void
}